target datalayout = "e-m:e-p270:32:32-p271:32:32-p272:64:64-i64:64-i128:128-f80:128-n8:16:32:64-S128"
target triple = "x86_64-pc-linux-gnu"

%"struct.std::_Rb_tree_key_compare" = type { %"struct.std::less" }
%"struct.std::less" = type { i8 }
%"struct.std::_Rb_tree_header" = type { %"struct.std::_Rb_tree_node_base", i64 }
%"struct.std::_Rb_tree_node_base" = type { i32, ptr, ptr, ptr }
%"class.std::vector" = type { %"struct.std::_Vector_base" }
%"struct.std::_Vector_base" = type { %"struct.std::_Vector_base<Edge *, std::allocator<Edge *>>::_Vector_impl" }
%"struct.std::_Vector_base<Edge *, std::allocator<Edge *>>::_Vector_impl" = type { %"struct.std::_Vector_base<Edge *, std::allocator<Edge *>>::_Vector_impl_data" }
%"struct.std::_Vector_base<Edge *, std::allocator<Edge *>>::_Vector_impl_data" = type { ptr, ptr, ptr }
%"class.std::vector.25" = type { %"struct.std::_Vector_base.26" }
%"struct.std::_Vector_base.26" = type { %"struct.std::_Vector_base<Node *, std::allocator<Node *>>::_Vector_impl" }
%"struct.std::_Vector_base<Node *, std::allocator<Node *>>::_Vector_impl" = type { %"struct.std::_Vector_base<Node *, std::allocator<Node *>>::_Vector_impl_data" }
%"struct.std::_Vector_base<Node *, std::allocator<Node *>>::_Vector_impl_data" = type { ptr, ptr, ptr }
%"class.std::__cxx11::basic_string" = type { %"struct.std::__cxx11::basic_string<char>::_Alloc_hider", i64, %union.anon }
%"struct.std::__cxx11::basic_string<char>::_Alloc_hider" = type { ptr }
%union.anon = type { i64, [8 x i8] }
%"class.__gnu_cxx::__normal_iterator.80" = type { ptr }
%struct.Edge = type <{ ptr, ptr, %"class.std::vector.25", %"class.std::vector.25", %"class.std::vector.25", ptr, ptr, i32, [4 x i8], i64, i64, i8, i8, i8, i8, [4 x i8], i64, i32, i32, i32, [4 x i8] }>
%struct.Node = type <{ %"class.std::__cxx11::basic_string", i64, i64, i32, i8, i8, i8, i8, ptr, %"class.std::vector", %"class.std::vector", i32, [4 x i8] }>
%struct.Rule = type { %"class.std::__cxx11::basic_string", %"class.std::map.156" }
%"class.std::map.156" = type { %"class.std::_Rb_tree.157" }
%"class.std::_Rb_tree.157" = type { %"struct.std::_Rb_tree<std::__cxx11::basic_string<char>, std::pair<const std::__cxx11::basic_string<char>, EvalString>, std::_Select1st<std::pair<const std::__cxx11::basic_string<char>, EvalString>>, std::less<std::__cxx11::basic_string<char>>>::_Rb_tree_impl" }
%"struct.std::_Rb_tree<std::__cxx11::basic_string<char>, std::pair<const std::__cxx11::basic_string<char>, EvalString>, std::_Select1st<std::pair<const std::__cxx11::basic_string<char>, EvalString>>, std::less<std::__cxx11::basic_string<char>>>::_Rb_tree_impl" = type { %"struct.std::_Rb_tree_key_compare", %"struct.std::_Rb_tree_header" }

@.str.14 = private unnamed_addr constant [4 x i8] c"%s\0A\00", align 1
@.str.95 = private unnamed_addr constant [8 x i8] c"%s: %s\0A\00", align 1
@.str.96 = private unnamed_addr constant [3 x i8] c"  \00", align 1

; Function Attrs: mustprogress nounwind uwtable
define linkonce_odr dso_local noundef nonnull align 8 dereferenceable(8) ptr @_ZNK9__gnu_cxx17__normal_iteratorIPKP4NodeSt6vectorIS2_SaIS2_EEE4baseEv(ptr noundef nonnull align 8 dereferenceable(8) %0) #11 comdat align 2 {
  %2 = alloca ptr, align 8
  store ptr %0, ptr %2, align 8
  %3 = load ptr, ptr %2, align 8
  %4 = getelementptr inbounds %"class.__gnu_cxx::__normal_iterator.80", ptr %3, i32 0, i32 0
  ret ptr %4
}

; Function Attrs: mustprogress nounwind uwtable
define linkonce_odr dso_local void @_ZN9__gnu_cxx17__normal_iteratorIPKP4NodeSt6vectorIS2_SaIS2_EEEC2ERKS4_(ptr noundef nonnull align 8 dereferenceable(8) %0, ptr noundef nonnull align 8 dereferenceable(8) %1) unnamed_addr #11 comdat align 2 {
  %3 = alloca ptr, align 8
  %4 = alloca ptr, align 8
  store ptr %0, ptr %3, align 8
  store ptr %1, ptr %4, align 8
  %5 = load ptr, ptr %3, align 8
  %6 = getelementptr inbounds %"class.__gnu_cxx::__normal_iterator.80", ptr %5, i32 0, i32 0
  %7 = load ptr, ptr %4, align 8
  %8 = load ptr, ptr %7, align 8
  store ptr %8, ptr %6, align 8
  ret void
}

; Function Attrs: mustprogress nounwind uwtable
define linkonce_odr dso_local noundef nonnull align 8 dereferenceable(8) ptr @_ZN9__gnu_cxx17__normal_iteratorIPKP4NodeSt6vectorIS2_SaIS2_EEEppEv(ptr noundef nonnull align 8 dereferenceable(8) %0) #11 comdat align 2 {
  %2 = alloca ptr, align 8
  store ptr %0, ptr %2, align 8
  %3 = load ptr, ptr %2, align 8
  %4 = getelementptr inbounds %"class.__gnu_cxx::__normal_iterator.80", ptr %3, i32 0, i32 0
  %5 = load ptr, ptr %4, align 8
  %6 = getelementptr inbounds ptr, ptr %5, i32 1
  store ptr %6, ptr %4, align 8
  ret ptr %3
}

; Function Attrs: mustprogress nounwind uwtable
define linkonce_odr dso_local noundef nonnull align 8 dereferenceable(32) ptr @_ZNK4Rule4nameB5cxx11Ev(ptr noundef nonnull align 8 dereferenceable(80) %0) #11 comdat align 2 {
  %2 = alloca ptr, align 8
  store ptr %0, ptr %2, align 8
  %3 = load ptr, ptr %2, align 8
  %4 = getelementptr inbounds %struct.Rule, ptr %3, i32 0, i32 0
  ret ptr %4
}

; Function Attrs: mustprogress nounwind uwtable
define linkonce_odr dso_local noundef ptr @_ZNK4Node7in_edgeEv(ptr noundef nonnull align 8 dereferenceable(116) %0) #11 comdat align 2 {
  %2 = alloca ptr, align 8
  store ptr %0, ptr %2, align 8
  %3 = load ptr, ptr %2, align 8
  %4 = getelementptr inbounds %struct.Node, ptr %3, i32 0, i32 8
  %5 = load ptr, ptr %4, align 8
  ret ptr %5
}

; Function Attrs: mustprogress nounwind uwtable
define linkonce_odr dso_local noundef nonnull align 8 dereferenceable(32) ptr @_ZNK4Node4pathB5cxx11Ev(ptr noundef nonnull align 8 dereferenceable(116) %0) #11 comdat align 2 {
  %2 = alloca ptr, align 8
  store ptr %0, ptr %2, align 8
  %3 = load ptr, ptr %2, align 8
  %4 = getelementptr inbounds %struct.Node, ptr %3, i32 0, i32 0
  ret ptr %4
}

; Function Attrs: mustprogress nounwind uwtable
define linkonce_odr dso_local noundef nonnull align 8 dereferenceable(8) ptr @_ZNK9__gnu_cxx17__normal_iteratorIPKP4NodeSt6vectorIS2_SaIS2_EEEdeEv(ptr noundef nonnull align 8 dereferenceable(8) %0) #11 comdat align 2 {
  %2 = alloca ptr, align 8
  store ptr %0, ptr %2, align 8
  %3 = load ptr, ptr %2, align 8
  %4 = getelementptr inbounds %"class.__gnu_cxx::__normal_iterator.80", ptr %3, i32 0, i32 0
  %5 = load ptr, ptr %4, align 8
  ret ptr %5
}

; Function Attrs: mustprogress nounwind uwtable
define linkonce_odr dso_local noundef zeroext i1 @_ZN9__gnu_cxxneIPKP4NodeSt6vectorIS2_SaIS2_EEEEbRKNS_17__normal_iteratorIT_T0_EESD_(ptr noundef nonnull align 8 dereferenceable(8) %0, ptr noundef nonnull align 8 dereferenceable(8) %1) #11 comdat {
  %3 = alloca ptr, align 8
  %4 = alloca ptr, align 8
  store ptr %0, ptr %3, align 8
  store ptr %1, ptr %4, align 8
  %5 = load ptr, ptr %3, align 8
  %6 = call noundef nonnull align 8 dereferenceable(8) ptr @_ZNK9__gnu_cxx17__normal_iteratorIPKP4NodeSt6vectorIS2_SaIS2_EEE4baseEv(ptr noundef nonnull align 8 dereferenceable(8) %5) #17
  %7 = load ptr, ptr %6, align 8
  %8 = load ptr, ptr %4, align 8
  %9 = call noundef nonnull align 8 dereferenceable(8) ptr @_ZNK9__gnu_cxx17__normal_iteratorIPKP4NodeSt6vectorIS2_SaIS2_EEE4baseEv(ptr noundef nonnull align 8 dereferenceable(8) %8) #17
  %10 = load ptr, ptr %9, align 8
  %11 = icmp ne ptr %7, %10
  ret i1 %11
}

; Function Attrs: mustprogress nounwind uwtable
define linkonce_odr dso_local ptr @_ZNKSt6vectorIP4NodeSaIS1_EE3endEv(ptr noundef nonnull align 8 dereferenceable(24) %0) #11 comdat align 2 {
  %2 = alloca %"class.__gnu_cxx::__normal_iterator.80", align 8
  %3 = alloca ptr, align 8
  store ptr %0, ptr %3, align 8
  %4 = load ptr, ptr %3, align 8
  %5 = getelementptr inbounds %"struct.std::_Vector_base.26", ptr %4, i32 0, i32 0
  %6 = getelementptr inbounds %"struct.std::_Vector_base<Node *, std::allocator<Node *>>::_Vector_impl_data", ptr %5, i32 0, i32 1
  call void @_ZN9__gnu_cxx17__normal_iteratorIPKP4NodeSt6vectorIS2_SaIS2_EEEC2ERKS4_(ptr noundef nonnull align 8 dereferenceable(8) %2, ptr noundef nonnull align 8 dereferenceable(8) %6) #17
  %7 = getelementptr inbounds %"class.__gnu_cxx::__normal_iterator.80", ptr %2, i32 0, i32 0
  %8 = load ptr, ptr %7, align 8
  ret ptr %8
}

; Function Attrs: mustprogress nounwind uwtable
define linkonce_odr dso_local ptr @_ZNKSt6vectorIP4NodeSaIS1_EE5beginEv(ptr noundef nonnull align 8 dereferenceable(24) %0) #11 comdat align 2 {
  %2 = alloca %"class.__gnu_cxx::__normal_iterator.80", align 8
  %3 = alloca ptr, align 8
  store ptr %0, ptr %3, align 8
  %4 = load ptr, ptr %3, align 8
  %5 = getelementptr inbounds %"struct.std::_Vector_base.26", ptr %4, i32 0, i32 0
  %6 = getelementptr inbounds %"struct.std::_Vector_base<Node *, std::allocator<Node *>>::_Vector_impl_data", ptr %5, i32 0, i32 0
  call void @_ZN9__gnu_cxx17__normal_iteratorIPKP4NodeSt6vectorIS2_SaIS2_EEEC2ERKS4_(ptr noundef nonnull align 8 dereferenceable(8) %2, ptr noundef nonnull align 8 dereferenceable(8) %6) #17
  %7 = getelementptr inbounds %"class.__gnu_cxx::__normal_iterator.80", ptr %2, i32 0, i32 0
  %8 = load ptr, ptr %7, align 8
  ret ptr %8
}

; Function Attrs: mustprogress uwtable
define internal noundef i32 @_ZN12_GLOBAL__N_115ToolTargetsListERKSt6vectorIP4NodeSaIS2_EEii(ptr noundef nonnull align 8 dereferenceable(24) %0, i32 noundef %1, i32 noundef %2) #2 {
  %4 = alloca ptr, align 8
  %5 = alloca i32, align 4
  %6 = alloca i32, align 4
  %7 = alloca %"class.__gnu_cxx::__normal_iterator.80", align 8
  %8 = alloca %"class.__gnu_cxx::__normal_iterator.80", align 8
  %9 = alloca i32, align 4
  %10 = alloca ptr, align 8
  store ptr %0, ptr %4, align 8
  store i32 %1, ptr %5, align 4
  store i32 %2, ptr %6, align 4
  %11 = load ptr, ptr %4, align 8
  %12 = call ptr @_ZNKSt6vectorIP4NodeSaIS1_EE5beginEv(ptr noundef nonnull align 8 dereferenceable(24) %11) #17
  %13 = getelementptr inbounds %"class.__gnu_cxx::__normal_iterator.80", ptr %7, i32 0, i32 0
  store ptr %12, ptr %13, align 8
  br label %14

14:                                               ; preds = %68, %3
  %15 = load ptr, ptr %4, align 8
  %16 = call ptr @_ZNKSt6vectorIP4NodeSaIS1_EE3endEv(ptr noundef nonnull align 8 dereferenceable(24) %15) #17
  %17 = getelementptr inbounds %"class.__gnu_cxx::__normal_iterator.80", ptr %8, i32 0, i32 0
  store ptr %16, ptr %17, align 8
  %18 = call noundef zeroext i1 @_ZN9__gnu_cxxneIPKP4NodeSt6vectorIS2_SaIS2_EEEEbRKNS_17__normal_iteratorIT_T0_EESD_(ptr noundef nonnull align 8 dereferenceable(8) %7, ptr noundef nonnull align 8 dereferenceable(8) %8) #17
  br i1 %18, label %19, label %70

19:                                               ; preds = %14
  store i32 0, ptr %9, align 4
  br label %20

20:                                               ; preds = %26, %19
  %21 = load i32, ptr %9, align 4
  %22 = load i32, ptr %6, align 4
  %23 = icmp slt i32 %21, %22
  br i1 %23, label %24, label %29

24:                                               ; preds = %20
  %25 = call i32 (ptr, ...) @printf(ptr noundef @.str.96)
  br label %26

26:                                               ; preds = %24
  %27 = load i32, ptr %9, align 4
  %28 = add nsw i32 %27, 1
  store i32 %28, ptr %9, align 4
  br label %20, !llvm.loop !74

29:                                               ; preds = %20
  %30 = call noundef nonnull align 8 dereferenceable(8) ptr @_ZNK9__gnu_cxx17__normal_iteratorIPKP4NodeSt6vectorIS2_SaIS2_EEEdeEv(ptr noundef nonnull align 8 dereferenceable(8) %7) #17
  %31 = load ptr, ptr %30, align 8
  %32 = call noundef nonnull align 8 dereferenceable(32) ptr @_ZNK4Node4pathB5cxx11Ev(ptr noundef nonnull align 8 dereferenceable(116) %31)
  %33 = call noundef ptr @_ZNKSt7__cxx1112basic_stringIcSt11char_traitsIcESaIcEE5c_strEv(ptr noundef nonnull align 8 dereferenceable(32) %32) #17
  store ptr %33, ptr %10, align 8
  %34 = call noundef nonnull align 8 dereferenceable(8) ptr @_ZNK9__gnu_cxx17__normal_iteratorIPKP4NodeSt6vectorIS2_SaIS2_EEEdeEv(ptr noundef nonnull align 8 dereferenceable(8) %7) #17
  %35 = load ptr, ptr %34, align 8
  %36 = call noundef ptr @_ZNK4Node7in_edgeEv(ptr noundef nonnull align 8 dereferenceable(116) %35)
  %37 = icmp ne ptr %36, null
  br i1 %37, label %38, label %64

38:                                               ; preds = %29
  %39 = load ptr, ptr %10, align 8
  %40 = call noundef nonnull align 8 dereferenceable(8) ptr @_ZNK9__gnu_cxx17__normal_iteratorIPKP4NodeSt6vectorIS2_SaIS2_EEEdeEv(ptr noundef nonnull align 8 dereferenceable(8) %7) #17
  %41 = load ptr, ptr %40, align 8
  %42 = call noundef ptr @_ZNK4Node7in_edgeEv(ptr noundef nonnull align 8 dereferenceable(116) %41)
  %43 = getelementptr inbounds %struct.Edge, ptr %42, i32 0, i32 0
  %44 = load ptr, ptr %43, align 8
  %45 = call noundef nonnull align 8 dereferenceable(32) ptr @_ZNK4Rule4nameB5cxx11Ev(ptr noundef nonnull align 8 dereferenceable(80) %44)
  %46 = call noundef ptr @_ZNKSt7__cxx1112basic_stringIcSt11char_traitsIcESaIcEE5c_strEv(ptr noundef nonnull align 8 dereferenceable(32) %45) #17
  %47 = call i32 (ptr, ...) @printf(ptr noundef @.str.95, ptr noundef %39, ptr noundef %46)
  %48 = load i32, ptr %5, align 4
  %49 = icmp sgt i32 %48, 1
  br i1 %49, label %53, label %50

50:                                               ; preds = %38
  %51 = load i32, ptr %5, align 4
  %52 = icmp sle i32 %51, 0
  br i1 %52, label %53, label %63

53:                                               ; preds = %50, %38
  %54 = call noundef nonnull align 8 dereferenceable(8) ptr @_ZNK9__gnu_cxx17__normal_iteratorIPKP4NodeSt6vectorIS2_SaIS2_EEEdeEv(ptr noundef nonnull align 8 dereferenceable(8) %7) #17
  %55 = load ptr, ptr %54, align 8
  %56 = call noundef ptr @_ZNK4Node7in_edgeEv(ptr noundef nonnull align 8 dereferenceable(116) %55)
  %57 = getelementptr inbounds %struct.Edge, ptr %56, i32 0, i32 2
  %58 = load i32, ptr %5, align 4
  %59 = sub nsw i32 %58, 1
  %60 = load i32, ptr %6, align 4
  %61 = add nsw i32 %60, 1
  %62 = call noundef i32 @_ZN12_GLOBAL__N_115ToolTargetsListERKSt6vectorIP4NodeSaIS2_EEii(ptr noundef nonnull align 8 dereferenceable(24) %57, i32 noundef %59, i32 noundef %61)
  br label %63

63:                                               ; preds = %53, %50
  br label %67

64:                                               ; preds = %29
  %65 = load ptr, ptr %10, align 8
  %66 = call i32 (ptr, ...) @printf(ptr noundef @.str.14, ptr noundef %65)
  br label %67

67:                                               ; preds = %64, %63
  br label %68

68:                                               ; preds = %67
  %69 = call noundef nonnull align 8 dereferenceable(8) ptr @_ZN9__gnu_cxx17__normal_iteratorIPKP4NodeSt6vectorIS2_SaIS2_EEEppEv(ptr noundef nonnull align 8 dereferenceable(8) %7) #17
  br label %14, !llvm.loop !75

70:                                               ; preds = %14
  ret i32 0
}