; Function Attrs: mustprogress nounwind uwtable
define internal fastcc void @_ZN12_GLOBAL__N_115ToolTargetsListERKSt6vectorIP4NodeSaIS2_EEii(ptr nocapture noundef nonnull readonly align 8 dereferenceable(24) %0, i32 noundef %1, i32 noundef %2) unnamed_addr #16 {
  %4 = load ptr, ptr %0, align 8
  %5 = getelementptr inbounds i8, ptr %0, i64 8
  %6 = load ptr, ptr %5, align 8
  %.not1820 = icmp eq ptr %4, %6
  br i1 %.not1820, label %._crit_edge22, label %.preheader.lr.ph

.preheader.lr.ph:                                 ; preds = %3
  %7 = icmp sgt i32 %2, 0
  %or.cond.not = icmp eq i32 %1, 1
  %8 = add nsw i32 %1, -1
  %9 = add nsw i32 %2, 1
  br i1 %7, label %.preheader.lr.ph.split.us, label %.preheader.lr.ph.split

.preheader.lr.ph.split.us:                        ; preds = %.preheader.lr.ph
  br i1 %or.cond.not, label %.preheader.us.us, label %.preheader.us

.preheader.us.us:                                 ; preds = %.preheader.lr.ph.split.us, %15
  %.sroa.012.021.us.us = phi ptr [ %16, %15 ], [ %4, %.preheader.lr.ph.split.us ]
  br label %18

10:                                               ; preds = %._crit_edge.us.us
  %11 = load ptr, ptr %25, align 8
  %12 = tail call noundef ptr @_ZNKSt7__cxx1112basic_stringIcSt11char_traitsIcESaIcEE5c_strEv(ptr noundef nonnull align 8 dereferenceable(32) %11) #26
  %13 = tail call i32 (ptr, ...) @printf(ptr noundef nonnull dereferenceable(1) @.str.95, ptr noundef %22, ptr noundef %12)
  br label %15

14:                                               ; preds = %._crit_edge.us.us
  %puts.us.us = tail call i32 @puts(ptr nonnull dereferenceable(1) %22)
  br label %15

15:                                               ; preds = %10, %14
  %16 = getelementptr inbounds i8, ptr %.sroa.012.021.us.us, i64 8
  %17 = load ptr, ptr %5, align 8
  %.not18.us.us = icmp eq ptr %16, %17
  br i1 %.not18.us.us, label %._crit_edge22, label %.preheader.us.us, !llvm.loop !75

18:                                               ; preds = %18, %.preheader.us.us
  %.019.us.us = phi i32 [ 0, %.preheader.us.us ], [ %20, %18 ]
  %19 = tail call i32 (ptr, ...) @printf(ptr noundef nonnull dereferenceable(1) @.str.96)
  %20 = add nuw nsw i32 %.019.us.us, 1
  %exitcond31.not = icmp eq i32 %20, %2
  br i1 %exitcond31.not, label %._crit_edge.us.us, label %18, !llvm.loop !76

._crit_edge.us.us:                                ; preds = %18
  %21 = load ptr, ptr %.sroa.012.021.us.us, align 8
  %22 = tail call noundef ptr @_ZNKSt7__cxx1112basic_stringIcSt11char_traitsIcESaIcEE5c_strEv(ptr noundef nonnull align 8 dereferenceable(32) %21) #26
  %23 = load ptr, ptr %.sroa.012.021.us.us, align 8
  %24 = getelementptr inbounds i8, ptr %23, i64 56
  %25 = load ptr, ptr %24, align 8
  %.not.us.us = icmp eq ptr %25, null
  br i1 %.not.us.us, label %14, label %10

.preheader.us:                                    ; preds = %.preheader.lr.ph.split.us, %35
  %.sroa.012.021.us = phi ptr [ %36, %35 ], [ %4, %.preheader.lr.ph.split.us ]
  br label %38

26:                                               ; preds = %._crit_edge.us
  %27 = load ptr, ptr %45, align 8
  %28 = tail call noundef ptr @_ZNKSt7__cxx1112basic_stringIcSt11char_traitsIcESaIcEE5c_strEv(ptr noundef nonnull align 8 dereferenceable(32) %27) #26
  %29 = tail call i32 (ptr, ...) @printf(ptr noundef nonnull dereferenceable(1) @.str.95, ptr noundef %42, ptr noundef %28)
  %30 = load ptr, ptr %.sroa.012.021.us, align 8
  %31 = getelementptr inbounds i8, ptr %30, i64 56
  %32 = load ptr, ptr %31, align 8
  %33 = getelementptr inbounds i8, ptr %32, i64 16
  tail call fastcc void @_ZN12_GLOBAL__N_115ToolTargetsListERKSt6vectorIP4NodeSaIS2_EEii(ptr noundef nonnull align 8 dereferenceable(24) %33, i32 noundef %8, i32 noundef %9)
  br label %35

34:                                               ; preds = %._crit_edge.us
  %puts.us = tail call i32 @puts(ptr nonnull dereferenceable(1) %42)
  br label %35

35:                                               ; preds = %34, %26
  %36 = getelementptr inbounds i8, ptr %.sroa.012.021.us, i64 8
  %37 = load ptr, ptr %5, align 8
  %.not18.us = icmp eq ptr %36, %37
  br i1 %.not18.us, label %._crit_edge22, label %.preheader.us, !llvm.loop !75

38:                                               ; preds = %.preheader.us, %38
  %.019.us = phi i32 [ 0, %.preheader.us ], [ %40, %38 ]
  %39 = tail call i32 (ptr, ...) @printf(ptr noundef nonnull dereferenceable(1) @.str.96)
  %40 = add nuw nsw i32 %.019.us, 1
  %exitcond.not = icmp eq i32 %40, %2
  br i1 %exitcond.not, label %._crit_edge.us, label %38, !llvm.loop !76

._crit_edge.us:                                   ; preds = %38
  %41 = load ptr, ptr %.sroa.012.021.us, align 8
  %42 = tail call noundef ptr @_ZNKSt7__cxx1112basic_stringIcSt11char_traitsIcESaIcEE5c_strEv(ptr noundef nonnull align 8 dereferenceable(32) %41) #26
  %43 = load ptr, ptr %.sroa.012.021.us, align 8
  %44 = getelementptr inbounds i8, ptr %43, i64 56
  %45 = load ptr, ptr %44, align 8
  %.not.us = icmp eq ptr %45, null
  br i1 %.not.us, label %34, label %26

.preheader.lr.ph.split:                           ; preds = %.preheader.lr.ph
  br i1 %or.cond.not, label %.preheader.us23, label %.preheader

.preheader.us23:                                  ; preds = %.preheader.lr.ph.split, %56
  %.sroa.012.021.us24 = phi ptr [ %57, %56 ], [ %4, %.preheader.lr.ph.split ]
  %46 = load ptr, ptr %.sroa.012.021.us24, align 8
  %47 = tail call noundef ptr @_ZNKSt7__cxx1112basic_stringIcSt11char_traitsIcESaIcEE5c_strEv(ptr noundef nonnull align 8 dereferenceable(32) %46) #26
  %48 = load ptr, ptr %.sroa.012.021.us24, align 8
  %49 = getelementptr inbounds i8, ptr %48, i64 56
  %50 = load ptr, ptr %49, align 8
  %.not.us25 = icmp eq ptr %50, null
  br i1 %.not.us25, label %55, label %51

51:                                               ; preds = %.preheader.us23
  %52 = load ptr, ptr %50, align 8
  %53 = tail call noundef ptr @_ZNKSt7__cxx1112basic_stringIcSt11char_traitsIcESaIcEE5c_strEv(ptr noundef nonnull align 8 dereferenceable(32) %52) #26
  %54 = tail call i32 (ptr, ...) @printf(ptr noundef nonnull dereferenceable(1) @.str.95, ptr noundef %47, ptr noundef %53)
  br label %56

55:                                               ; preds = %.preheader.us23
  %puts.us26 = tail call i32 @puts(ptr nonnull dereferenceable(1) %47)
  br label %56

56:                                               ; preds = %51, %55
  %57 = getelementptr inbounds i8, ptr %.sroa.012.021.us24, i64 8
  %58 = load ptr, ptr %5, align 8
  %.not18.us27 = icmp eq ptr %57, %58
  br i1 %.not18.us27, label %._crit_edge22, label %.preheader.us23, !llvm.loop !75

.preheader:                                       ; preds = %.preheader.lr.ph.split, %73
  %.sroa.012.021 = phi ptr [ %74, %73 ], [ %4, %.preheader.lr.ph.split ]
  %59 = load ptr, ptr %.sroa.012.021, align 8
  %60 = tail call noundef ptr @_ZNKSt7__cxx1112basic_stringIcSt11char_traitsIcESaIcEE5c_strEv(ptr noundef nonnull align 8 dereferenceable(32) %59) #26
  %61 = load ptr, ptr %.sroa.012.021, align 8
  %62 = getelementptr inbounds i8, ptr %61, i64 56
  %63 = load ptr, ptr %62, align 8
  %.not = icmp eq ptr %63, null
  br i1 %.not, label %72, label %64

64:                                               ; preds = %.preheader
  %65 = load ptr, ptr %63, align 8
  %66 = tail call noundef ptr @_ZNKSt7__cxx1112basic_stringIcSt11char_traitsIcESaIcEE5c_strEv(ptr noundef nonnull align 8 dereferenceable(32) %65) #26
  %67 = tail call i32 (ptr, ...) @printf(ptr noundef nonnull dereferenceable(1) @.str.95, ptr noundef %60, ptr noundef %66)
  %68 = load ptr, ptr %.sroa.012.021, align 8
  %69 = getelementptr inbounds i8, ptr %68, i64 56
  %70 = load ptr, ptr %69, align 8
  %71 = getelementptr inbounds i8, ptr %70, i64 16
  tail call fastcc void @_ZN12_GLOBAL__N_115ToolTargetsListERKSt6vectorIP4NodeSaIS2_EEii(ptr noundef nonnull align 8 dereferenceable(24) %71, i32 noundef %8, i32 noundef %9)
  br label %73

72:                                               ; preds = %.preheader
  %puts = tail call i32 @puts(ptr nonnull dereferenceable(1) %60)
  br label %73

73:                                               ; preds = %72, %64
  %74 = getelementptr inbounds i8, ptr %.sroa.012.021, i64 8
  %75 = load ptr, ptr %5, align 8
  %.not18 = icmp eq ptr %74, %75
  br i1 %.not18, label %._crit_edge22, label %.preheader, !llvm.loop !75

._crit_edge22:                                    ; preds = %73, %56, %35, %15, %3
  ret void
}